; Function Attrs: mustprogress nofree norecurse nosync nounwind willreturn memory(readwrite, inaccessiblemem: none) uwtable
define noundef i32 @_ZN13duckdb_apache6thrift9transport13TMemoryBuffer8readSlowEPhj(ptr noundef nonnull align 8 captures(none) dereferenceable(57) initializes((16, 24)) %0, ptr noundef writeonly captures(none) %1, i32 noundef %2) unnamed_addr #2 align 2 {
  %4 = getelementptr inbounds nuw i8, ptr %0, i64 24
  %5 = load ptr, ptr %4, align 8, !tbaa !3
  %6 = getelementptr inbounds nuw i8, ptr %0, i64 16
  store ptr %5, ptr %6, align 8, !tbaa !12
  %7 = getelementptr inbounds nuw i8, ptr %0, i64 8
  %8 = load ptr, ptr %7, align 8, !tbaa !13
  %9 = ptrtoint ptr %5 to i64
  %10 = ptrtoint ptr %8 to i64
  %11 = sub i64 %9, %10
  %12 = trunc i64 %11 to i32
  %.sroa.speculated.i = tail call i32 @llvm.umin.i32(i32 %2, i32 %12)
  %13 = zext i32 %.sroa.speculated.i to i64
  %14 = getelementptr inbounds nuw i8, ptr %8, i64 %13
  store ptr %14, ptr %7, align 8, !tbaa !13
  tail call void @llvm.memcpy.p0.p0.i64(ptr align 1 %1, ptr align 1 %8, i64 %13, i1 false)
  ret i32 %.sroa.speculated.i
}